Microchip MPLAB XC8 Compiler V2.45

Linker command line:

-W-3 \
  --edf=C:/Users/Silv/.mchp_packs/Microchip/PIC16Fxxx_DFP/1.6.156/xc8\pic\dat\20231012211500_en.msgs \
  -cn -h+dist/default/debug\DivergenceMeter.X.debug.sym \
  --cmf=dist/default/debug\DivergenceMeter.X.debug.cmf -z -Q16F628A \
  -oC:\Users\Silv\AppData\Local\Temp\xcAs7f0.\driver_tmp_3.o \
  --defsym=__MPLAB_BUILD=1 --fixupoverflow=error \
  -Mdist/default/debug/DivergenceMeter.X.debug.map \
  --md=C:\Users\Silv\AppData\Local\Temp\xcAs7f0.\driver_tmp_0.dat -E1 \
  -ver=XC8 Compiler --acfsm=1493 -ACODE=00h-07FFh -ASTRCODE=00h-07FFh \
  -ASTRING=00h-0FFhx8 -ACONST=00h-0FFhx8 -AENTRY=00h-0FFhx8 \
  -ACOMMON=070h-07Fh -ABANK0=020h-06Fh -ABANK1=0A0h-0EFh \
  -ABANK2=0120h-014Fh -ARAM=020h-06Fh,0A0h-0EFh,0120h-014Fh \
  -AABS1=020h-07Fh,0A0h-0EFh,0120h-014Fh -ASFR0=00h-01Fh -ASFR1=080h-09Fh \
  -ASFR2=0100h-011Fh -ASFR3=0180h-01EFh -ACONFIG=02007h-02007h -DCONFIG=2 \
  -AIDLOC=02000h-02003h -DIDLOC=2 -AEEDATA=00h-07Fh/02100h \
  -peeprom_data=EEDATA -DEEDATA=2 -DCODE=2 -DSTRCODE=2 -DSTRING=2 -DCONST=2 \
  -DENTRY=2 -preset_vec=00h,intentry,init,end_init -ppowerup=CODE \
  -pcinit=CODE -pfunctab=ENTRY -k \
  C:\Users\Silv\AppData\Local\Temp\xcAs7f0.\driver_tmp_12.o \
  dist/default/debug\DivergenceMeter.X.debug.o 

Object code version is 3.11

Machine type is 16F628A



                Name                               Link     Load   Length Selector   Space Scale
C:\Users\Silv\AppData\Local\Temp\xcAs7f0.\driver_tmp_12.o
                end_init                              0        0        1        0       0
                config                             2007     2007        1        0       4
dist/default/debug\DivergenceMeter.X.debug.o
                cinit                               7FC      7FC        4      FF8       0
                config                             2007     2007        1        0       4
                text19                              6CA      6CA        5      D94       0
                text18                              79B      79B       24      F36       0
                text17                              709      709        F      E12       0
                text16                              727      727       11      E4E       0
                text15                              6C3      6C3        3      D86       0
                text14                              738      738       11      E70       0
                text13                              6FB      6FB        E      DF6       0
                text12                              7BF      7BF       3D      F7E       0
                text11                              6F1      6F1        A      DE2       0
                text10                              6E9      6E9        8      DD2       0
                text9                               6C1      6C1        2      D82       0
                text8                               6D4      6D4        7      DA8       0
                text7                               6C6      6C6        4      D8C       0
                text6                               6DB      6DB        7      DB6       0
                text5                               77A      77A       21      EF4       0
                text4                               718      718        F      E30       0
                text3                               6CF      6CF        5      D9E       0
                text2                               6E2      6E2        7      DC4       0
                text1                               749      749       17      E92       0
                maintext                            760      760       1A      EC0       0
                cstackCOMMON                         70       70        8       70       1
                bssCOMMON                            78       78        2       70       1

TOTAL           Name                               Link     Load   Length     Space
        CLASS   CODE           
                end_init                              0        0        1         0
                cinit                               7FC      7FC        4         0
                text19                              6CA      6CA        5         0
                text18                              79B      79B       24         0
                text17                              709      709        F         0
                text16                              727      727       11         0
                text15                              6C3      6C3        3         0
                text14                              738      738       11         0
                text13                              6FB      6FB        E         0
                text12                              7BF      7BF       3D         0
                text11                              6F1      6F1        A         0
                text10                              6E9      6E9        8         0
                text9                               6C1      6C1        2         0
                text8                               6D4      6D4        7         0
                text7                               6C6      6C6        4         0
                text6                               6DB      6DB        7         0
                text5                               77A      77A       21         0
                text4                               718      718        F         0
                text3                               6CF      6CF        5         0
                text2                               6E2      6E2        7         0
                text1                               749      749       17         0
                maintext                            760      760       1A         0

        CLASS   STRCODE        

        CLASS   STRING         

        CLASS   CONST          

        CLASS   ENTRY          

        CLASS   COMMON         
                cstackCOMMON                         70       70        8         1
                bssCOMMON                            78       78        2         1

        CLASS   BANK0          

        CLASS   BANK1          

        CLASS   BANK2          

        CLASS   RAM            

        CLASS   ABS1           
                abs_s1                               20       20        A         1
                abs_s1                               7E       7E        2         1

        CLASS   SFR0           

        CLASS   SFR1           

        CLASS   SFR2           

        CLASS   SFR3           

        CLASS   CONFIG         
                config                             2007     2007        1         4

        CLASS   IDLOC          

        CLASS   EEDATA         

        CLASS   BANK3          

        CLASS   HEAP           

        CLASS   STACK          



SEGMENTS        Name                           Load    Length   Top    Selector   Space  Class     Delta

                reset_vec                      000000  000001  000001         0       0  CODE        2
                cstackCOMMON                   000070  00000A  00007A        70       1  COMMON      1
                text9                          0006C1  000002  0006C3       D82       0  CODE        2
                text15                         0006C3  000003  0006C6       D86       0  CODE        2
                text7                          0006C6  000004  0006CA       D8C       0  CODE        2
                text19                         0006CA  000005  0006CF       D94       0  CODE        2
                text3                          0006CF  000005  0006D4       D9E       0  CODE        2
                text8                          0006D4  000007  0006DB       DA8       0  CODE        2
                text6                          0006DB  000007  0006E2       DB6       0  CODE        2
                text2                          0006E2  000007  0006E9       DC4       0  CODE        2
                text10                         0006E9  000008  0006F1       DD2       0  CODE        2
                text11                         0006F1  00000A  0006FB       DE2       0  CODE        2
                text13                         0006FB  00000E  000709       DF6       0  CODE        2
                text17                         000709  00000F  000718       E12       0  CODE        2
                text4                          000718  00000F  000727       E30       0  CODE        2
                text16                         000727  000011  000738       E4E       0  CODE        2
                text14                         000738  000011  000749       E70       0  CODE        2
                text1                          000749  000017  000760       E92       0  CODE        2
                maintext                       000760  00001A  00077A       EC0       0  CODE        2
                text5                          00077A  000021  00079B       EF4       0  CODE        2
                text18                         00079B  000024  0007BF       F36       0  CODE        2
                text12                         0007BF  00003D  0007FC       F7E       0  CODE        2
                cinit                          0007FC  000004  000800       FF8       0  CODE        2


UNUSED ADDRESS RANGES

        Name                Unused          Largest block    Delta
        BANK0            002A-006F             46           1
        BANK1            00A0-00EF             50           1
        BANK2            0120-014F             30           1
        CODE             0001-06C0            6C0           2
        COMMON           007A-007D              4           1
        CONST            0001-06C0            100           2
        EEDATA           2100-217F             80           2
        ENTRY            0001-06C0            100           2
        IDLOC            2000-2003              4           2
        RAM              002A-006F             46           1
                         00A0-00EF             50
                         0120-014F             30
        SFR0             0000-001F             20           1
        SFR1             0080-009F             20           1
        SFR2             0100-011F             20           1
        SFR3             0180-01EF             70           1
        STRCODE          0001-06C0            6C0           2
        STRING           0001-06C0            100           2

                                  Symbol Table

I2C_ReadByte@Data        cstackCOMMON 0072
I2C_ReadByte@i           cstackCOMMON 0071
I2C_WriteByte@Data       cstackCOMMON 0072
I2C_WriteByte@i          cstackCOMMON 0073
_CMCON                   (abs)        001F
_I2C_ReStart             text14       0738
_I2C_ReadByte            text18       079B
_I2C_SendACK             text4        0718
_I2C_SendNACK            text17       0709
_I2C_Start               text13       06FB
_I2C_Stop                text16       0727
_I2C_WriteByte           text12       07BF
_InitI2C                 text19       06CA
_OPTION_REG              (abs)        0081
_PORTAbits               (abs)        0005
_PORTB                   (abs)        0006
_PORTB_SHADOW            bssCOMMON    0078
_T0                      (abs)        0022
_T1                      (abs)        0023
_T2                      (abs)        0024
_T3                      (abs)        0025
_T4                      (abs)        0026
_T5                      (abs)        0027
_T6                      (abs)        0028
_T7                      (abs)        0029
_TRISA                   (abs)        0085
_TRISAbits               (abs)        0085
_TRISB                   (abs)        0086
__H__absolute__          __absolute__ 0000
__Habs1                  abs1         0000
__Hbank0                 bank0        0000
__Hbank1                 bank1        0000
__Hbank2                 bank2        0000
__Hbank3                 bank3        0000
__HbssCOMMON             bssCOMMON    0000
__Hcinit                 cinit        0800
__Hclrtext               clrtext      0000
__Hcode                  code         0000
__Hcommon                common       0000
__Hconfig                config       2008
__HcstackCOMMON          cstackCOMMON 0000
__Heeprom_data           eeprom_data  0000
__Hend_init              end_init     0001
__Hfunctab               functab      0000
__Hheap                  heap         0000
__Hinit                  init         0000
__Hintentry              intentry     0000
__Hmaintext              maintext     0000
__Hpowerup               powerup      0000
__Hram                   ram          0000
__Hreset_vec             reset_vec    0000
__Hsfr0                  sfr0         0000
__Hsfr1                  sfr1         0000
__Hsfr2                  sfr2         0000
__Hsfr3                  sfr3         0000
__Hspace_0               (abs)        0800
__Hspace_1               (abs)        007A
__Hspace_2               (abs)        0000
__Hspace_3               (abs)        0000
__Hspace_4               (abs)        400F
__Hstack                 stack        0000
__Hstrings               strings      0000
__Htext                  text         0000
__L__absolute__          __absolute__ 0000
__Labs1                  abs1         0000
__Lbank0                 bank0        0000
__Lbank1                 bank1        0000
__Lbank2                 bank2        0000
__Lbank3                 bank3        0000
__LbssCOMMON             bssCOMMON    0000
__Lcinit                 cinit        07FC
__Lclrtext               clrtext      0000
__Lcode                  code         0000
__Lcommon                common       0000
__Lconfig                config       0000
__LcstackCOMMON          cstackCOMMON 0000
__Leeprom_data           eeprom_data  0000
__Lend_init              end_init     0000
__Lfunctab               functab      0000
__Lheap                  heap         0000
__Linit                  init         0000
__Lintentry              intentry     0000
__Lmaintext              maintext     0000
__Lpowerup               powerup      0000
__Lram                   ram          0000
__Lreset_vec             reset_vec    0000
__Lsfr0                  sfr0         0000
__Lsfr1                  sfr1         0000
__Lsfr2                  sfr2         0000
__Lsfr3                  sfr3         0000
__Lspace_0               (abs)        0000
__Lspace_1               (abs)        0000
__Lspace_2               (abs)        0000
__Lspace_3               (abs)        0000
__Lspace_4               (abs)        0000
__Lstack                 stack        0000
__Lstrings               strings      0000
__Ltext                  text         0000
__S0                     (abs)        0800
__S1                     (abs)        007A
__S3                     (abs)        0000
___heap_hi               (abs)        0000
___heap_lo               (abs)        0000
___int_sp                stack        0000
___int_stack_hi          stack        0000
___int_stack_lo          stack        0000
___latbits               (abs)        0000
___sp                    stack        0000
___stack_hi              stack        0000
___stack_lo              stack        0000
___stackhi               (abs)        0000
___stacklo               (abs)        0000
__end_of_I2C_ReStart     text14       0749
__end_of_I2C_ReadByte    text18       07BF
__end_of_I2C_SendACK     text4        0727
__end_of_I2C_SendNACK    text17       0718
__end_of_I2C_Start       text13       0709
__end_of_I2C_Stop        text16       0738
__end_of_I2C_WriteByte   text12       07FC
__end_of_InitI2C         text19       06CF
__end_of__initialization cinit        07FE
__end_of_checkRTCType    text5        079B
__end_of_endReadRTC      text15       06C6
__end_of_endWriteRTC     text9        06C3
__end_of_isRTCRunning    text2        06E9
__end_of_main            maintext     077A
__end_of_readByteRTC     text10       06F1
__end_of_readDataRTC     text3        06D4
__end_of_reqReadRTC      text11       06FB
__end_of_reqWriteRTC     text8        06DB
__end_of_startRTC        text1        0760
__end_of_writeByteRTC    text6        06E2
__end_of_writeDataRTC    text7        06CA
__initialization         cinit        07FC
__pbssCOMMON             bssCOMMON    0078
__pcstackCOMMON          cstackCOMMON 0070
__pmaintext              maintext     0760
__ptext0                 text0        0000
__ptext1                 text1        0749
__ptext10                text10       06E9
__ptext11                text11       06F1
__ptext12                text12       07BF
__ptext13                text13       06FB
__ptext14                text14       0738
__ptext15                text15       06C3
__ptext16                text16       0727
__ptext17                text17       0709
__ptext18                text18       079B
__ptext19                text19       06CA
__ptext2                 text2        06E2
__ptext3                 text3        06CF
__ptext4                 text4        0718
__ptext5                 text5        077A
__ptext6                 text6        06DB
__ptext7                 text7        06C6
__ptext8                 text8        06D4
__ptext9                 text9        06C1
_checkRTCType            text5        077A
_endReadRTC              text15       06C3
_endWriteRTC             text9        06C1
_isRTCRunning            text2        06E2
_leftDP                  (abs)        0020
_main                    maintext     0760
_readByteRTC             text10       06E9
_readDataRTC             text3        06CF
_reqReadRTC              text11       06F1
_reqWriteRTC             text8        06D4
_rightDP                 (abs)        0021
_startRTC                text1        0749
_writeByteRTC            text6        06DB
_writeDataRTC            text7        06C6
btemp                    (abs)        007E
checkRTCType@data        cstackCOMMON 0077
end_of_initialization    cinit        07FE
intlevel0                functab      0000
intlevel1                functab      0000
intlevel2                functab      0000
intlevel3                functab      0000
intlevel4                functab      0000
intlevel5                functab      0000
isRTCRunning@data        cstackCOMMON 0075
readByteRTC@address      cstackCOMMON 0075
readByteRTC@data         cstackCOMMON 0076
readDataRTC@data         cstackCOMMON 0073
reqReadRTC@address       cstackCOMMON 0074
reqWriteRTC@address      cstackCOMMON 0074
reset_vec                reset_vec    0000
start                    init         0000
start_initialization     cinit        07FC
writeByteRTC@address     cstackCOMMON 0076
writeByteRTC@data        cstackCOMMON 0075
writeDataRTC@data        cstackCOMMON 0074
wtemp0                   (abs)        007E


MODULE INFORMATION

Module		Function		Class		Link	Load	Size
shared
		__initialization		CODE           	07FC	0000	2

shared estimated size: 2

IIC.c
		_I2C_Stop      		CODE           	0727	0000	17
		_I2C_WriteByte 		CODE           	07BF	0000	61
		_InitI2C       		CODE           	06CA	0000	5
		_I2C_ReadByte  		CODE           	079B	0000	36
		_I2C_SendACK   		CODE           	0718	0000	15
		_I2C_SendNACK  		CODE           	0709	0000	15
		_I2C_Start     		CODE           	06FB	0000	14
		_I2C_ReStart   		CODE           	0738	0000	17

IIC.c estimated size: 180

main.c
		_main          		CODE           	0760	0000	26

main.c estimated size: 26

RTC.c
		_readByteRTC   		CODE           	06E9	0000	8
		_readDataRTC   		CODE           	06CF	0000	5
		_reqWriteRTC   		CODE           	06D4	0000	7
		_endReadRTC    		CODE           	06C3	0000	3
		_writeByteRTC  		CODE           	06DB	0000	7
		_checkRTCType  		CODE           	077A	0000	33
		_isRTCRunning  		CODE           	06E2	0000	7
		_startRTC      		CODE           	0749	0000	23
		_writeDataRTC  		CODE           	06C6	0000	4
		_endWriteRTC   		CODE           	06C1	0000	2
		_reqReadRTC    		CODE           	06F1	0000	10

RTC.c estimated size: 109

